#include <math.h>
#include <stdio.h>
#include <stdlib.h>
#include <string.h>

int main(){
 int a,b=0,b1=0,c,d,e,f,g,i,k,t,raw,col,x,y;
 int array[100][100];
 scanf("%d %d",&raw,&col);
 c=raw*col;
 for(i=0;i<raw;i++){
   for(t=0;t<col;t++){
     scanf("%d",&a);
     array[i][t]=a;
  }
 }
 for(i=0;b<c;i++){ 
     for(t=i;t<col-i;t++){
       if(b<c){
       printf("%d\n",array[i][t]);
       }
       b=b+1;
       }
     
       for(e=i+1;e<raw-i;e++){
         if(b<c){
         printf("%d\n",array[e][col-i-1]);
         }
         b=b+1;
         }
        
       for(f=col-2-i;f>=i;f--){
         if(b<c){
         printf("%d\n",array[raw-1-i][f]);
         }
         b=b+1;
         }
      
       for(g=raw-2-i;g>i;g--){
         if(b<c){
         printf("%d\n",array[g][i]);
         }
         b=b+1;
        
         }
       } 
    
 scanf("%d\n",&array[x][y]);
 return 0;
}
