; ModuleID = '46/2405.c'
source_filename = "46/2405.c"
target datalayout = "e-m:e-p270:32:32-p271:32:32-p272:64:64-i64:64-f80:128-n8:16:32:64-S128"
target triple = "x86_64-pc-linux-gnu"

@.str = private unnamed_addr constant [6 x i8] c"%d %d\00", align 1
@.str.1 = private unnamed_addr constant [3 x i8] c"%d\00", align 1
@.str.2 = private unnamed_addr constant [4 x i8] c"%d\0A\00", align 1

; Function Attrs: noinline nounwind uwtable
define dso_local i32 @main() #0 {
  %1 = alloca i32, align 4
  %2 = alloca i32, align 4
  %3 = alloca i32, align 4
  %4 = alloca i32, align 4
  %5 = alloca i32, align 4
  %6 = alloca i32, align 4
  %7 = alloca i32, align 4
  %8 = alloca i32, align 4
  %9 = alloca i32, align 4
  %10 = alloca i32, align 4
  %11 = alloca i32, align 4
  %12 = alloca i32, align 4
  %13 = alloca i32, align 4
  %14 = alloca i32, align 4
  %15 = alloca i32, align 4
  %16 = alloca i32, align 4
  %17 = alloca [100 x [100 x i32]], align 16
  store i32 0, i32* %1, align 4
  store i32 0, i32* %3, align 4
  store i32 0, i32* %4, align 4
  %18 = call i32 (i8*, ...) @__isoc99_scanf(i8* getelementptr inbounds ([6 x i8], [6 x i8]* @.str, i64 0, i64 0), i32* %13, i32* %14)
  %19 = load i32, i32* %13, align 4
  %20 = load i32, i32* %14, align 4
  %21 = mul nsw i32 %19, %20
  store i32 %21, i32* %5, align 4
  store i32 0, i32* %10, align 4
  br label %22

22:                                               ; preds = %44, %0
  %23 = load i32, i32* %10, align 4
  %24 = load i32, i32* %13, align 4
  %25 = icmp slt i32 %23, %24
  br i1 %25, label %26, label %47

26:                                               ; preds = %22
  store i32 0, i32* %12, align 4
  br label %27

27:                                               ; preds = %40, %26
  %28 = load i32, i32* %12, align 4
  %29 = load i32, i32* %14, align 4
  %30 = icmp slt i32 %28, %29
  br i1 %30, label %31, label %43

31:                                               ; preds = %27
  %32 = call i32 (i8*, ...) @__isoc99_scanf(i8* getelementptr inbounds ([3 x i8], [3 x i8]* @.str.1, i64 0, i64 0), i32* %2)
  %33 = load i32, i32* %2, align 4
  %34 = load i32, i32* %10, align 4
  %35 = sext i32 %34 to i64
  %36 = getelementptr inbounds [100 x [100 x i32]], [100 x [100 x i32]]* %17, i64 0, i64 %35
  %37 = load i32, i32* %12, align 4
  %38 = sext i32 %37 to i64
  %39 = getelementptr inbounds [100 x i32], [100 x i32]* %36, i64 0, i64 %38
  store i32 %33, i32* %39, align 4
  br label %40

40:                                               ; preds = %31
  %41 = load i32, i32* %12, align 4
  %42 = add nsw i32 %41, 1
  store i32 %42, i32* %12, align 4
  br label %27

43:                                               ; preds = %27
  br label %44

44:                                               ; preds = %43
  %45 = load i32, i32* %10, align 4
  %46 = add nsw i32 %45, 1
  store i32 %46, i32* %10, align 4
  br label %22

47:                                               ; preds = %22
  store i32 0, i32* %10, align 4
  br label %48

48:                                               ; preds = %170, %47
  %49 = load i32, i32* %3, align 4
  %50 = load i32, i32* %5, align 4
  %51 = icmp slt i32 %49, %50
  br i1 %51, label %52, label %173

52:                                               ; preds = %48
  %53 = load i32, i32* %10, align 4
  store i32 %53, i32* %12, align 4
  br label %54

54:                                               ; preds = %76, %52
  %55 = load i32, i32* %12, align 4
  %56 = load i32, i32* %14, align 4
  %57 = load i32, i32* %10, align 4
  %58 = sub nsw i32 %56, %57
  %59 = icmp slt i32 %55, %58
  br i1 %59, label %60, label %79

60:                                               ; preds = %54
  %61 = load i32, i32* %3, align 4
  %62 = load i32, i32* %5, align 4
  %63 = icmp slt i32 %61, %62
  br i1 %63, label %64, label %73

64:                                               ; preds = %60
  %65 = load i32, i32* %10, align 4
  %66 = sext i32 %65 to i64
  %67 = getelementptr inbounds [100 x [100 x i32]], [100 x [100 x i32]]* %17, i64 0, i64 %66
  %68 = load i32, i32* %12, align 4
  %69 = sext i32 %68 to i64
  %70 = getelementptr inbounds [100 x i32], [100 x i32]* %67, i64 0, i64 %69
  %71 = load i32, i32* %70, align 4
  %72 = call i32 (i8*, ...) @printf(i8* getelementptr inbounds ([4 x i8], [4 x i8]* @.str.2, i64 0, i64 0), i32 %71)
  br label %73

73:                                               ; preds = %64, %60
  %74 = load i32, i32* %3, align 4
  %75 = add nsw i32 %74, 1
  store i32 %75, i32* %3, align 4
  br label %76

76:                                               ; preds = %73
  %77 = load i32, i32* %12, align 4
  %78 = add nsw i32 %77, 1
  store i32 %78, i32* %12, align 4
  br label %54

79:                                               ; preds = %54
  %80 = load i32, i32* %10, align 4
  %81 = add nsw i32 %80, 1
  store i32 %81, i32* %7, align 4
  br label %82

82:                                               ; preds = %107, %79
  %83 = load i32, i32* %7, align 4
  %84 = load i32, i32* %13, align 4
  %85 = load i32, i32* %10, align 4
  %86 = sub nsw i32 %84, %85
  %87 = icmp slt i32 %83, %86
  br i1 %87, label %88, label %110

88:                                               ; preds = %82
  %89 = load i32, i32* %3, align 4
  %90 = load i32, i32* %5, align 4
  %91 = icmp slt i32 %89, %90
  br i1 %91, label %92, label %104

92:                                               ; preds = %88
  %93 = load i32, i32* %7, align 4
  %94 = sext i32 %93 to i64
  %95 = getelementptr inbounds [100 x [100 x i32]], [100 x [100 x i32]]* %17, i64 0, i64 %94
  %96 = load i32, i32* %14, align 4
  %97 = load i32, i32* %10, align 4
  %98 = sub nsw i32 %96, %97
  %99 = sub nsw i32 %98, 1
  %100 = sext i32 %99 to i64
  %101 = getelementptr inbounds [100 x i32], [100 x i32]* %95, i64 0, i64 %100
  %102 = load i32, i32* %101, align 4
  %103 = call i32 (i8*, ...) @printf(i8* getelementptr inbounds ([4 x i8], [4 x i8]* @.str.2, i64 0, i64 0), i32 %102)
  br label %104

104:                                              ; preds = %92, %88
  %105 = load i32, i32* %3, align 4
  %106 = add nsw i32 %105, 1
  store i32 %106, i32* %3, align 4
  br label %107

107:                                              ; preds = %104
  %108 = load i32, i32* %7, align 4
  %109 = add nsw i32 %108, 1
  store i32 %109, i32* %7, align 4
  br label %82

110:                                              ; preds = %82
  %111 = load i32, i32* %14, align 4
  %112 = sub nsw i32 %111, 2
  %113 = load i32, i32* %10, align 4
  %114 = sub nsw i32 %112, %113
  store i32 %114, i32* %8, align 4
  br label %115

115:                                              ; preds = %138, %110
  %116 = load i32, i32* %8, align 4
  %117 = load i32, i32* %10, align 4
  %118 = icmp sge i32 %116, %117
  br i1 %118, label %119, label %141

119:                                              ; preds = %115
  %120 = load i32, i32* %3, align 4
  %121 = load i32, i32* %5, align 4
  %122 = icmp slt i32 %120, %121
  br i1 %122, label %123, label %135

123:                                              ; preds = %119
  %124 = load i32, i32* %13, align 4
  %125 = sub nsw i32 %124, 1
  %126 = load i32, i32* %10, align 4
  %127 = sub nsw i32 %125, %126
  %128 = sext i32 %127 to i64
  %129 = getelementptr inbounds [100 x [100 x i32]], [100 x [100 x i32]]* %17, i64 0, i64 %128
  %130 = load i32, i32* %8, align 4
  %131 = sext i32 %130 to i64
  %132 = getelementptr inbounds [100 x i32], [100 x i32]* %129, i64 0, i64 %131
  %133 = load i32, i32* %132, align 4
  %134 = call i32 (i8*, ...) @printf(i8* getelementptr inbounds ([4 x i8], [4 x i8]* @.str.2, i64 0, i64 0), i32 %133)
  br label %135

135:                                              ; preds = %123, %119
  %136 = load i32, i32* %3, align 4
  %137 = add nsw i32 %136, 1
  store i32 %137, i32* %3, align 4
  br label %138

138:                                              ; preds = %135
  %139 = load i32, i32* %8, align 4
  %140 = add nsw i32 %139, -1
  store i32 %140, i32* %8, align 4
  br label %115

141:                                              ; preds = %115
  %142 = load i32, i32* %13, align 4
  %143 = sub nsw i32 %142, 2
  %144 = load i32, i32* %10, align 4
  %145 = sub nsw i32 %143, %144
  store i32 %145, i32* %9, align 4
  br label %146

146:                                              ; preds = %166, %141
  %147 = load i32, i32* %9, align 4
  %148 = load i32, i32* %10, align 4
  %149 = icmp sgt i32 %147, %148
  br i1 %149, label %150, label %169

150:                                              ; preds = %146
  %151 = load i32, i32* %3, align 4
  %152 = load i32, i32* %5, align 4
  %153 = icmp slt i32 %151, %152
  br i1 %153, label %154, label %163

154:                                              ; preds = %150
  %155 = load i32, i32* %9, align 4
  %156 = sext i32 %155 to i64
  %157 = getelementptr inbounds [100 x [100 x i32]], [100 x [100 x i32]]* %17, i64 0, i64 %156
  %158 = load i32, i32* %10, align 4
  %159 = sext i32 %158 to i64
  %160 = getelementptr inbounds [100 x i32], [100 x i32]* %157, i64 0, i64 %159
  %161 = load i32, i32* %160, align 4
  %162 = call i32 (i8*, ...) @printf(i8* getelementptr inbounds ([4 x i8], [4 x i8]* @.str.2, i64 0, i64 0), i32 %161)
  br label %163

163:                                              ; preds = %154, %150
  %164 = load i32, i32* %3, align 4
  %165 = add nsw i32 %164, 1
  store i32 %165, i32* %3, align 4
  br label %166

166:                                              ; preds = %163
  %167 = load i32, i32* %9, align 4
  %168 = add nsw i32 %167, -1
  store i32 %168, i32* %9, align 4
  br label %146

169:                                              ; preds = %146
  br label %170

170:                                              ; preds = %169
  %171 = load i32, i32* %10, align 4
  %172 = add nsw i32 %171, 1
  store i32 %172, i32* %10, align 4
  br label %48

173:                                              ; preds = %48
  %174 = load i32, i32* %15, align 4
  %175 = sext i32 %174 to i64
  %176 = getelementptr inbounds [100 x [100 x i32]], [100 x [100 x i32]]* %17, i64 0, i64 %175
  %177 = load i32, i32* %16, align 4
  %178 = sext i32 %177 to i64
  %179 = getelementptr inbounds [100 x i32], [100 x i32]* %176, i64 0, i64 %178
  %180 = call i32 (i8*, ...) @__isoc99_scanf(i8* getelementptr inbounds ([4 x i8], [4 x i8]* @.str.2, i64 0, i64 0), i32* %179)
  ret i32 0
}

declare dso_local i32 @__isoc99_scanf(i8*, ...) #1

declare dso_local i32 @printf(i8*, ...) #1


!llvm.module.flags = !{!0}
!llvm.ident = !{!1}

!0 = !{i32 1, !"wchar_size", i32 4}
!1 = !{!"clang version 10.0.0-4ubuntu1 "}
